; Function Attrs: mustprogress nounwind uwtable
define internal noundef zeroext i1 @_ZNSt17_Function_handlerIFbRKNSt7__cxx1112basic_stringIcSt11char_traitsIcESaIcEEES7_EZN12_GLOBAL__N_112StringSorter21GetComparisonFunctionEN6cmList17SortConfiguration13CompareMethodEEUlS7_S7_E0_E9_M_invokeERKSt9_Any_dataS7_S7_(ptr nocapture nonnull readnone align 8 %0, ptr noundef nonnull align 8 dereferenceable(32) %1, ptr noundef nonnull align 8 dereferenceable(32) %2) #6 align 2 personality ptr @__gxx_personality_v0 {
  %4 = invoke noundef i32 @_ZNKSt7__cxx1112basic_stringIcSt11char_traitsIcESaIcEE7compareERKS4_(ptr noundef nonnull align 8 dereferenceable(32) %1, ptr noundef nonnull align 8 dereferenceable(32) %2)
          to label %_ZSt10__invoke_rIbRZN12_GLOBAL__N_112StringSorter21GetComparisonFunctionB5cxx11EN6cmList17SortConfiguration13CompareMethodEEUlRKNSt7__cxx1112basic_stringIcSt11char_traitsIcESaIcEEESC_E0_JSC_SC_EENSt9enable_ifIX16is_invocable_r_vIT_T0_DpT1_EESG_E4typeEOSH_DpOSI_.exit unwind label %5

5:                                                ; preds = %3
  %6 = landingpad { ptr, i32 }
          catch ptr null
  %7 = extractvalue { ptr, i32 } %6, 0
  tail call void @__clang_call_terminate(ptr %7) #30
  unreachable

_ZSt10__invoke_rIbRZN12_GLOBAL__N_112StringSorter21GetComparisonFunctionB5cxx11EN6cmList17SortConfiguration13CompareMethodEEUlRKNSt7__cxx1112basic_stringIcSt11char_traitsIcESaIcEEESC_E0_JSC_SC_EENSt9enable_ifIX16is_invocable_r_vIT_T0_DpT1_EESG_E4typeEOSH_DpOSI_.exit: ; preds = %3
  %8 = icmp slt i32 %4, 0
  ret i1 %8
}